; ModuleID = '64/2471.c'
source_filename = "64/2471.c"
target datalayout = "e-m:e-p270:32:32-p271:32:32-p272:64:64-i64:64-f80:128-n8:16:32:64-S128"
target triple = "x86_64-pc-linux-gnu"

@.str = private unnamed_addr constant [3 x i8] c"%d\00", align 1
@.str.1 = private unnamed_addr constant [9 x i8] c"%d %d %d\00", align 1
@.str.2 = private unnamed_addr constant [29 x i8] c"(%d,%d,%d)-(%d,%d,%d)=%.2lf\0A\00", align 1

; Function Attrs: noinline nounwind uwtable
define dso_local i32 @main() #0 {
  %1 = alloca i32, align 4
  %2 = alloca i32, align 4
  %3 = alloca i32, align 4
  %4 = alloca i32, align 4
  %5 = alloca [10 x i32], align 16
  %6 = alloca [10 x i32], align 16
  %7 = alloca [10 x i32], align 16
  %8 = alloca [200 x i32], align 16
  %9 = alloca [200 x i32], align 16
  %10 = alloca [200 x double], align 16
  %11 = alloca i32, align 4
  %12 = alloca i32, align 4
  %13 = alloca i32, align 4
  %14 = alloca i32, align 4
  %15 = alloca double, align 8
  %16 = alloca i32, align 4
  %17 = alloca i32, align 4
  %18 = alloca i32, align 4
  store i32 0, i32* %1, align 4
  %19 = call i32 (i8*, ...) @__isoc99_scanf(i8* getelementptr inbounds ([3 x i8], [3 x i8]* @.str, i64 0, i64 0), i32* %2)
  store i32 0, i32* %4, align 4
  store i32 0, i32* %11, align 4
  br label %20

20:                                               ; preds = %35, %0
  %21 = load i32, i32* %11, align 4
  %22 = load i32, i32* %2, align 4
  %23 = icmp slt i32 %21, %22
  br i1 %23, label %24, label %38

24:                                               ; preds = %20
  %25 = load i32, i32* %11, align 4
  %26 = sext i32 %25 to i64
  %27 = getelementptr inbounds [10 x i32], [10 x i32]* %5, i64 0, i64 %26
  %28 = load i32, i32* %11, align 4
  %29 = sext i32 %28 to i64
  %30 = getelementptr inbounds [10 x i32], [10 x i32]* %6, i64 0, i64 %29
  %31 = load i32, i32* %11, align 4
  %32 = sext i32 %31 to i64
  %33 = getelementptr inbounds [10 x i32], [10 x i32]* %7, i64 0, i64 %32
  %34 = call i32 (i8*, ...) @__isoc99_scanf(i8* getelementptr inbounds ([9 x i8], [9 x i8]* @.str.1, i64 0, i64 0), i32* %27, i32* %30, i32* %33)
  br label %35

35:                                               ; preds = %24
  %36 = load i32, i32* %11, align 4
  %37 = add nsw i32 %36, 1
  store i32 %37, i32* %11, align 4
  br label %20

38:                                               ; preds = %20
  store i32 0, i32* %12, align 4
  br label %39

39:                                               ; preds = %130, %38
  %40 = load i32, i32* %12, align 4
  %41 = load i32, i32* %2, align 4
  %42 = icmp slt i32 %40, %41
  br i1 %42, label %43, label %133

43:                                               ; preds = %39
  %44 = load i32, i32* %12, align 4
  %45 = add nsw i32 %44, 1
  store i32 %45, i32* %13, align 4
  br label %46

46:                                               ; preds = %126, %43
  %47 = load i32, i32* %13, align 4
  %48 = load i32, i32* %2, align 4
  %49 = icmp slt i32 %47, %48
  br i1 %49, label %50, label %129

50:                                               ; preds = %46
  %51 = load i32, i32* %12, align 4
  %52 = sext i32 %51 to i64
  %53 = getelementptr inbounds [10 x i32], [10 x i32]* %5, i64 0, i64 %52
  %54 = load i32, i32* %53, align 4
  %55 = load i32, i32* %13, align 4
  %56 = sext i32 %55 to i64
  %57 = getelementptr inbounds [10 x i32], [10 x i32]* %5, i64 0, i64 %56
  %58 = load i32, i32* %57, align 4
  %59 = sub nsw i32 %54, %58
  %60 = load i32, i32* %12, align 4
  %61 = sext i32 %60 to i64
  %62 = getelementptr inbounds [10 x i32], [10 x i32]* %5, i64 0, i64 %61
  %63 = load i32, i32* %62, align 4
  %64 = load i32, i32* %13, align 4
  %65 = sext i32 %64 to i64
  %66 = getelementptr inbounds [10 x i32], [10 x i32]* %5, i64 0, i64 %65
  %67 = load i32, i32* %66, align 4
  %68 = sub nsw i32 %63, %67
  %69 = mul nsw i32 %59, %68
  %70 = load i32, i32* %12, align 4
  %71 = sext i32 %70 to i64
  %72 = getelementptr inbounds [10 x i32], [10 x i32]* %6, i64 0, i64 %71
  %73 = load i32, i32* %72, align 4
  %74 = load i32, i32* %13, align 4
  %75 = sext i32 %74 to i64
  %76 = getelementptr inbounds [10 x i32], [10 x i32]* %6, i64 0, i64 %75
  %77 = load i32, i32* %76, align 4
  %78 = sub nsw i32 %73, %77
  %79 = load i32, i32* %12, align 4
  %80 = sext i32 %79 to i64
  %81 = getelementptr inbounds [10 x i32], [10 x i32]* %6, i64 0, i64 %80
  %82 = load i32, i32* %81, align 4
  %83 = load i32, i32* %13, align 4
  %84 = sext i32 %83 to i64
  %85 = getelementptr inbounds [10 x i32], [10 x i32]* %6, i64 0, i64 %84
  %86 = load i32, i32* %85, align 4
  %87 = sub nsw i32 %82, %86
  %88 = mul nsw i32 %78, %87
  %89 = add nsw i32 %69, %88
  %90 = load i32, i32* %12, align 4
  %91 = sext i32 %90 to i64
  %92 = getelementptr inbounds [10 x i32], [10 x i32]* %7, i64 0, i64 %91
  %93 = load i32, i32* %92, align 4
  %94 = load i32, i32* %13, align 4
  %95 = sext i32 %94 to i64
  %96 = getelementptr inbounds [10 x i32], [10 x i32]* %7, i64 0, i64 %95
  %97 = load i32, i32* %96, align 4
  %98 = sub nsw i32 %93, %97
  %99 = load i32, i32* %12, align 4
  %100 = sext i32 %99 to i64
  %101 = getelementptr inbounds [10 x i32], [10 x i32]* %7, i64 0, i64 %100
  %102 = load i32, i32* %101, align 4
  %103 = load i32, i32* %13, align 4
  %104 = sext i32 %103 to i64
  %105 = getelementptr inbounds [10 x i32], [10 x i32]* %7, i64 0, i64 %104
  %106 = load i32, i32* %105, align 4
  %107 = sub nsw i32 %102, %106
  %108 = mul nsw i32 %98, %107
  %109 = add nsw i32 %89, %108
  store i32 %109, i32* %3, align 4
  %110 = load i32, i32* %3, align 4
  %111 = sitofp i32 %110 to double
  %112 = call double @sqrt(double %111) #3
  %113 = load i32, i32* %4, align 4
  %114 = sext i32 %113 to i64
  %115 = getelementptr inbounds [200 x double], [200 x double]* %10, i64 0, i64 %114
  store double %112, double* %115, align 8
  %116 = load i32, i32* %12, align 4
  %117 = load i32, i32* %4, align 4
  %118 = sext i32 %117 to i64
  %119 = getelementptr inbounds [200 x i32], [200 x i32]* %8, i64 0, i64 %118
  store i32 %116, i32* %119, align 4
  %120 = load i32, i32* %13, align 4
  %121 = load i32, i32* %4, align 4
  %122 = sext i32 %121 to i64
  %123 = getelementptr inbounds [200 x i32], [200 x i32]* %9, i64 0, i64 %122
  store i32 %120, i32* %123, align 4
  %124 = load i32, i32* %4, align 4
  %125 = add nsw i32 %124, 1
  store i32 %125, i32* %4, align 4
  br label %126

126:                                              ; preds = %50
  %127 = load i32, i32* %13, align 4
  %128 = add nsw i32 %127, 1
  store i32 %128, i32* %13, align 4
  br label %46

129:                                              ; preds = %46
  br label %130

130:                                              ; preds = %129
  %131 = load i32, i32* %12, align 4
  %132 = add nsw i32 %131, 1
  store i32 %132, i32* %12, align 4
  br label %39

133:                                              ; preds = %39
  store i32 1, i32* %16, align 4
  br label %134

134:                                              ; preds = %213, %133
  %135 = load i32, i32* %16, align 4
  %136 = load i32, i32* %4, align 4
  %137 = icmp slt i32 %135, %136
  br i1 %137, label %138, label %216

138:                                              ; preds = %134
  store i32 0, i32* %17, align 4
  br label %139

139:                                              ; preds = %209, %138
  %140 = load i32, i32* %17, align 4
  %141 = load i32, i32* %4, align 4
  %142 = load i32, i32* %16, align 4
  %143 = sub nsw i32 %141, %142
  %144 = icmp slt i32 %140, %143
  br i1 %144, label %145, label %212

145:                                              ; preds = %139
  %146 = load i32, i32* %17, align 4
  %147 = sext i32 %146 to i64
  %148 = getelementptr inbounds [200 x double], [200 x double]* %10, i64 0, i64 %147
  %149 = load double, double* %148, align 8
  %150 = load i32, i32* %17, align 4
  %151 = add nsw i32 %150, 1
  %152 = sext i32 %151 to i64
  %153 = getelementptr inbounds [200 x double], [200 x double]* %10, i64 0, i64 %152
  %154 = load double, double* %153, align 8
  %155 = fcmp olt double %149, %154
  br i1 %155, label %156, label %208

156:                                              ; preds = %145
  %157 = load i32, i32* %17, align 4
  %158 = sext i32 %157 to i64
  %159 = getelementptr inbounds [200 x double], [200 x double]* %10, i64 0, i64 %158
  %160 = load double, double* %159, align 8
  store double %160, double* %15, align 8
  %161 = load i32, i32* %17, align 4
  %162 = add nsw i32 %161, 1
  %163 = sext i32 %162 to i64
  %164 = getelementptr inbounds [200 x double], [200 x double]* %10, i64 0, i64 %163
  %165 = load double, double* %164, align 8
  %166 = load i32, i32* %17, align 4
  %167 = sext i32 %166 to i64
  %168 = getelementptr inbounds [200 x double], [200 x double]* %10, i64 0, i64 %167
  store double %165, double* %168, align 8
  %169 = load double, double* %15, align 8
  %170 = load i32, i32* %17, align 4
  %171 = add nsw i32 %170, 1
  %172 = sext i32 %171 to i64
  %173 = getelementptr inbounds [200 x double], [200 x double]* %10, i64 0, i64 %172
  store double %169, double* %173, align 8
  %174 = load i32, i32* %17, align 4
  %175 = sext i32 %174 to i64
  %176 = getelementptr inbounds [200 x i32], [200 x i32]* %8, i64 0, i64 %175
  %177 = load i32, i32* %176, align 4
  store i32 %177, i32* %14, align 4
  %178 = load i32, i32* %17, align 4
  %179 = add nsw i32 %178, 1
  %180 = sext i32 %179 to i64
  %181 = getelementptr inbounds [200 x i32], [200 x i32]* %8, i64 0, i64 %180
  %182 = load i32, i32* %181, align 4
  %183 = load i32, i32* %17, align 4
  %184 = sext i32 %183 to i64
  %185 = getelementptr inbounds [200 x i32], [200 x i32]* %8, i64 0, i64 %184
  store i32 %182, i32* %185, align 4
  %186 = load i32, i32* %14, align 4
  %187 = load i32, i32* %17, align 4
  %188 = add nsw i32 %187, 1
  %189 = sext i32 %188 to i64
  %190 = getelementptr inbounds [200 x i32], [200 x i32]* %8, i64 0, i64 %189
  store i32 %186, i32* %190, align 4
  %191 = load i32, i32* %17, align 4
  %192 = sext i32 %191 to i64
  %193 = getelementptr inbounds [200 x i32], [200 x i32]* %9, i64 0, i64 %192
  %194 = load i32, i32* %193, align 4
  store i32 %194, i32* %14, align 4
  %195 = load i32, i32* %17, align 4
  %196 = add nsw i32 %195, 1
  %197 = sext i32 %196 to i64
  %198 = getelementptr inbounds [200 x i32], [200 x i32]* %9, i64 0, i64 %197
  %199 = load i32, i32* %198, align 4
  %200 = load i32, i32* %17, align 4
  %201 = sext i32 %200 to i64
  %202 = getelementptr inbounds [200 x i32], [200 x i32]* %9, i64 0, i64 %201
  store i32 %199, i32* %202, align 4
  %203 = load i32, i32* %14, align 4
  %204 = load i32, i32* %17, align 4
  %205 = add nsw i32 %204, 1
  %206 = sext i32 %205 to i64
  %207 = getelementptr inbounds [200 x i32], [200 x i32]* %9, i64 0, i64 %206
  store i32 %203, i32* %207, align 4
  br label %208

208:                                              ; preds = %156, %145
  br label %209

209:                                              ; preds = %208
  %210 = load i32, i32* %17, align 4
  %211 = add nsw i32 %210, 1
  store i32 %211, i32* %17, align 4
  br label %139

212:                                              ; preds = %139
  br label %213

213:                                              ; preds = %212
  %214 = load i32, i32* %16, align 4
  %215 = add nsw i32 %214, 1
  store i32 %215, i32* %16, align 4
  br label %134

216:                                              ; preds = %134
  store i32 0, i32* %18, align 4
  br label %217

217:                                              ; preds = %269, %216
  %218 = load i32, i32* %18, align 4
  %219 = load i32, i32* %4, align 4
  %220 = icmp slt i32 %218, %219
  br i1 %220, label %221, label %272

221:                                              ; preds = %217
  %222 = load i32, i32* %18, align 4
  %223 = sext i32 %222 to i64
  %224 = getelementptr inbounds [200 x i32], [200 x i32]* %8, i64 0, i64 %223
  %225 = load i32, i32* %224, align 4
  %226 = sext i32 %225 to i64
  %227 = getelementptr inbounds [10 x i32], [10 x i32]* %5, i64 0, i64 %226
  %228 = load i32, i32* %227, align 4
  %229 = load i32, i32* %18, align 4
  %230 = sext i32 %229 to i64
  %231 = getelementptr inbounds [200 x i32], [200 x i32]* %8, i64 0, i64 %230
  %232 = load i32, i32* %231, align 4
  %233 = sext i32 %232 to i64
  %234 = getelementptr inbounds [10 x i32], [10 x i32]* %6, i64 0, i64 %233
  %235 = load i32, i32* %234, align 4
  %236 = load i32, i32* %18, align 4
  %237 = sext i32 %236 to i64
  %238 = getelementptr inbounds [200 x i32], [200 x i32]* %8, i64 0, i64 %237
  %239 = load i32, i32* %238, align 4
  %240 = sext i32 %239 to i64
  %241 = getelementptr inbounds [10 x i32], [10 x i32]* %7, i64 0, i64 %240
  %242 = load i32, i32* %241, align 4
  %243 = load i32, i32* %18, align 4
  %244 = sext i32 %243 to i64
  %245 = getelementptr inbounds [200 x i32], [200 x i32]* %9, i64 0, i64 %244
  %246 = load i32, i32* %245, align 4
  %247 = sext i32 %246 to i64
  %248 = getelementptr inbounds [10 x i32], [10 x i32]* %5, i64 0, i64 %247
  %249 = load i32, i32* %248, align 4
  %250 = load i32, i32* %18, align 4
  %251 = sext i32 %250 to i64
  %252 = getelementptr inbounds [200 x i32], [200 x i32]* %9, i64 0, i64 %251
  %253 = load i32, i32* %252, align 4
  %254 = sext i32 %253 to i64
  %255 = getelementptr inbounds [10 x i32], [10 x i32]* %6, i64 0, i64 %254
  %256 = load i32, i32* %255, align 4
  %257 = load i32, i32* %18, align 4
  %258 = sext i32 %257 to i64
  %259 = getelementptr inbounds [200 x i32], [200 x i32]* %9, i64 0, i64 %258
  %260 = load i32, i32* %259, align 4
  %261 = sext i32 %260 to i64
  %262 = getelementptr inbounds [10 x i32], [10 x i32]* %7, i64 0, i64 %261
  %263 = load i32, i32* %262, align 4
  %264 = load i32, i32* %18, align 4
  %265 = sext i32 %264 to i64
  %266 = getelementptr inbounds [200 x double], [200 x double]* %10, i64 0, i64 %265
  %267 = load double, double* %266, align 8
  %268 = call i32 (i8*, ...) @printf(i8* getelementptr inbounds ([29 x i8], [29 x i8]* @.str.2, i64 0, i64 0), i32 %228, i32 %235, i32 %242, i32 %249, i32 %256, i32 %263, double %267)
  br label %269

269:                                              ; preds = %221
  %270 = load i32, i32* %18, align 4
  %271 = add nsw i32 %270, 1
  store i32 %271, i32* %18, align 4
  br label %217

272:                                              ; preds = %217
  ret i32 0
}

declare dso_local i32 @__isoc99_scanf(i8*, ...) #1

; Function Attrs: nounwind
declare dso_local double @sqrt(double) #2

declare dso_local i32 @printf(i8*, ...) #1


!llvm.module.flags = !{!0}
!llvm.ident = !{!1}

!0 = !{i32 1, !"wchar_size", i32 4}
!1 = !{!"clang version 10.0.0-4ubuntu1 "}
